SF:/Users/rnio/Private/GitHub/tree/src/bin/tree.rs
FN:142,_RNvCsjUomtSlq7GJ_4tree4main
FN:142,_RNvCsjPYXuFuwSZg_4tree4main
FNDA:0,_RNvCsjUomtSlq7GJ_4tree4main
FNDA:8,_RNvCsjPYXuFuwSZg_4tree4main
FNF:1
FNH:1
DA:142,8
DA:143,8
DA:145,8
DA:147,2
DA:148,2
DA:151,6
DA:154,6
DA:155,8
BRF:0
BRH:0
LF:8
LH:8
end_of_record
SF:/Users/rnio/Private/GitHub/tree/src/lib.rs
FN:197,_RINvCs783jmKTKXyJ_4tree5printINtNtCs7ZNJgePCJgb_5alloc3vec3VechEECsd6w2qWaW15T_14property_tests
FN:288,_RNvCs783jmKTKXyJ_4tree13validate_root
FN:265,_RNvCs783jmKTKXyJ_4tree5clear
FN:197,_RINvCs10tvkwnf5vW_4tree5printpEB2_
FN:288,_RNvCs10tvkwnf5vW_4tree13validate_root
FN:265,_RNvCs10tvkwnf5vW_4tree5clear
FN:197,_RINvCs783jmKTKXyJ_4tree5printNtNtNtCsdfB75elLdI8_3std2io5stdio6StdoutECsjPYXuFuwSZg_4tree
FNDA:1032,_RINvCs783jmKTKXyJ_4tree5printINtNtCs7ZNJgePCJgb_5alloc3vec3VechEECsd6w2qWaW15T_14property_tests
FNDA:1812,_RNvCs783jmKTKXyJ_4tree13validate_root
FNDA:776,_RNvCs783jmKTKXyJ_4tree5clear
FNDA:0,_RINvCs10tvkwnf5vW_4tree5printpEB2_
FNDA:0,_RNvCs10tvkwnf5vW_4tree13validate_root
FNDA:0,_RNvCs10tvkwnf5vW_4tree5clear
FNDA:4,_RINvCs783jmKTKXyJ_4tree5printNtNtNtCsdfB75elLdI8_3std2io5stdio6StdoutECsjPYXuFuwSZg_4tree
FNF:3
FNH:3
DA:197,1036
DA:198,1036
DA:199,1034
DA:200,1036
DA:265,776
DA:266,776
DA:267,776
DA:268,776
DA:288,1812
DA:289,1812
DA:290,1
DA:291,1811
DA:292,1811
DA:293,1
DA:294,1810
DA:295,1810
DA:296,1812
BRF:0
BRH:0
LF:17
LH:17
end_of_record
SF:/Users/rnio/Private/GitHub/tree/src/tree_printer.rs
FN:149,_RINvNtCs783jmKTKXyJ_4tree12tree_printer11render_treeINtNtCs7ZNJgePCJgb_5alloc3vec3VechEECsd6w2qWaW15T_14property_tests
FN:36,_RINvNtCs783jmKTKXyJ_4tree12tree_printer30print_directory_tree_to_writerINtNtCs7ZNJgePCJgb_5alloc3vec3VechEECsd6w2qWaW15T_14property_tests
FN:177,_RNvNtCs783jmKTKXyJ_4tree12tree_printer16collect_children
FN:129,_RNvNtCs783jmKTKXyJ_4tree12tree_printer20read_ignore_patterns
FN:55,_RNvNtCs783jmKTKXyJ_4tree12tree_printer24clear_ignore_files_count
FN:116,_RNvNtCs783jmKTKXyJ_4tree12tree_printer26create_default_ignore_file
FN:185,_RNCNvNtCs783jmKTKXyJ_4tree12tree_printer16collect_children0B5_
FN:187,_RNCNvNtCs783jmKTKXyJ_4tree12tree_printer16collect_childrens0_0B5_
FN:191,_RNCNvNtCs783jmKTKXyJ_4tree12tree_printer16collect_childrens1_0B5_
FN:186,_RNCNvNtCs783jmKTKXyJ_4tree12tree_printer16collect_childrens_0B5_
FN:135,_RNCNvNtCs783jmKTKXyJ_4tree12tree_printer20read_ignore_patterns0B5_
FN:139,_RNCNvNtCs783jmKTKXyJ_4tree12tree_printer20read_ignore_patternss_0B5_
FN:68,_RNCNvNtCs783jmKTKXyJ_4tree12tree_printer24clear_ignore_files_count0B5_
FN:71,_RNCNvNtCs783jmKTKXyJ_4tree12tree_printer24clear_ignore_files_counts_0B5_
FN:122,_RNCNvNtCs783jmKTKXyJ_4tree12tree_printer26create_default_ignore_file0B5_
FN:125,_RNCNvNtCs783jmKTKXyJ_4tree12tree_printer26create_default_ignore_files_0B5_
FN:149,_RINvNtCs10tvkwnf5vW_4tree12tree_printer11render_treepEB4_
FN:36,_RINvNtCs10tvkwnf5vW_4tree12tree_printer30print_directory_tree_to_writerpEB4_
FN:185,_RNCNvNtCs10tvkwnf5vW_4tree12tree_printer16collect_children0B5_
FN:187,_RNCNvNtCs10tvkwnf5vW_4tree12tree_printer16collect_childrens0_0B5_
FN:191,_RNCNvNtCs10tvkwnf5vW_4tree12tree_printer16collect_childrens1_0B5_
FN:186,_RNCNvNtCs10tvkwnf5vW_4tree12tree_printer16collect_childrens_0B5_
FN:135,_RNCNvNtCs10tvkwnf5vW_4tree12tree_printer20read_ignore_patterns0B5_
FN:139,_RNCNvNtCs10tvkwnf5vW_4tree12tree_printer20read_ignore_patternss_0B5_
FN:68,_RNCNvNtCs10tvkwnf5vW_4tree12tree_printer24clear_ignore_files_count0B5_
FN:71,_RNCNvNtCs10tvkwnf5vW_4tree12tree_printer24clear_ignore_files_counts_0B5_
FN:122,_RNCNvNtCs10tvkwnf5vW_4tree12tree_printer26create_default_ignore_file0B5_
FN:125,_RNCNvNtCs10tvkwnf5vW_4tree12tree_printer26create_default_ignore_files_0B5_
FN:177,_RNvNtCs10tvkwnf5vW_4tree12tree_printer16collect_children
FN:129,_RNvNtCs10tvkwnf5vW_4tree12tree_printer20read_ignore_patterns
FN:55,_RNvNtCs10tvkwnf5vW_4tree12tree_printer24clear_ignore_files_count
FN:116,_RNvNtCs10tvkwnf5vW_4tree12tree_printer26create_default_ignore_file
FN:149,_RINvNtCs783jmKTKXyJ_4tree12tree_printer11render_treeNtNtNtCsdfB75elLdI8_3std2io5stdio6StdoutECsjPYXuFuwSZg_4tree
FN:36,_RINvNtCs783jmKTKXyJ_4tree12tree_printer30print_directory_tree_to_writerNtNtNtCsdfB75elLdI8_3std2io5stdio6StdoutECsjPYXuFuwSZg_4tree
FNDA:2339,_RINvNtCs783jmKTKXyJ_4tree12tree_printer11render_treeINtNtCs7ZNJgePCJgb_5alloc3vec3VechEECsd6w2qWaW15T_14property_tests
FNDA:1032,_RINvNtCs783jmKTKXyJ_4tree12tree_printer30print_directory_tree_to_writerINtNtCs7ZNJgePCJgb_5alloc3vec3VechEECsd6w2qWaW15T_14property_tests
FNDA:2343,_RNvNtCs783jmKTKXyJ_4tree12tree_printer16collect_children
FNDA:1034,_RNvNtCs783jmKTKXyJ_4tree12tree_printer20read_ignore_patterns
FNDA:776,_RNvNtCs783jmKTKXyJ_4tree12tree_printer24clear_ignore_files_count
FNDA:518,_RNvNtCs783jmKTKXyJ_4tree12tree_printer26create_default_ignore_file
FNDA:7966,_RNCNvNtCs783jmKTKXyJ_4tree12tree_printer16collect_children0B5_
FNDA:5623,_RNCNvNtCs783jmKTKXyJ_4tree12tree_printer16collect_childrens0_0B5_
FNDA:8633,_RNCNvNtCs783jmKTKXyJ_4tree12tree_printer16collect_childrens1_0B5_
FNDA:7966,_RNCNvNtCs783jmKTKXyJ_4tree12tree_printer16collect_childrens_0B5_
FNDA:0,_RNCNvNtCs783jmKTKXyJ_4tree12tree_printer20read_ignore_patterns0B5_
FNDA:23150,_RNCNvNtCs783jmKTKXyJ_4tree12tree_printer20read_ignore_patternss_0B5_
FNDA:4894,_RNCNvNtCs783jmKTKXyJ_4tree12tree_printer24clear_ignore_files_count0B5_
FNDA:0,_RNCNvNtCs783jmKTKXyJ_4tree12tree_printer24clear_ignore_files_counts_0B5_
FNDA:0,_RNCNvNtCs783jmKTKXyJ_4tree12tree_printer26create_default_ignore_file0B5_
FNDA:0,_RNCNvNtCs783jmKTKXyJ_4tree12tree_printer26create_default_ignore_files_0B5_
FNDA:0,_RINvNtCs10tvkwnf5vW_4tree12tree_printer11render_treepEB4_
FNDA:0,_RINvNtCs10tvkwnf5vW_4tree12tree_printer30print_directory_tree_to_writerpEB4_
FNDA:0,_RNCNvNtCs10tvkwnf5vW_4tree12tree_printer16collect_children0B5_
FNDA:0,_RNCNvNtCs10tvkwnf5vW_4tree12tree_printer16collect_childrens0_0B5_
FNDA:0,_RNCNvNtCs10tvkwnf5vW_4tree12tree_printer16collect_childrens1_0B5_
FNDA:0,_RNCNvNtCs10tvkwnf5vW_4tree12tree_printer16collect_childrens_0B5_
FNDA:0,_RNCNvNtCs10tvkwnf5vW_4tree12tree_printer20read_ignore_patterns0B5_
FNDA:0,_RNCNvNtCs10tvkwnf5vW_4tree12tree_printer20read_ignore_patternss_0B5_
FNDA:0,_RNCNvNtCs10tvkwnf5vW_4tree12tree_printer24clear_ignore_files_count0B5_
FNDA:0,_RNCNvNtCs10tvkwnf5vW_4tree12tree_printer24clear_ignore_files_counts_0B5_
FNDA:0,_RNCNvNtCs10tvkwnf5vW_4tree12tree_printer26create_default_ignore_file0B5_
FNDA:0,_RNCNvNtCs10tvkwnf5vW_4tree12tree_printer26create_default_ignore_files_0B5_
FNDA:0,_RNvNtCs10tvkwnf5vW_4tree12tree_printer16collect_children
FNDA:0,_RNvNtCs10tvkwnf5vW_4tree12tree_printer20read_ignore_patterns
FNDA:0,_RNvNtCs10tvkwnf5vW_4tree12tree_printer24clear_ignore_files_count
FNDA:0,_RNvNtCs10tvkwnf5vW_4tree12tree_printer26create_default_ignore_file
FNDA:4,_RINvNtCs783jmKTKXyJ_4tree12tree_printer11render_treeNtNtNtCsdfB75elLdI8_3std2io5stdio6StdoutECsjPYXuFuwSZg_4tree
FNDA:2,_RINvNtCs783jmKTKXyJ_4tree12tree_printer30print_directory_tree_to_writerNtNtNtCsdfB75elLdI8_3std2io5stdio6StdoutECsjPYXuFuwSZg_4tree
FNF:16
FNH:12
DA:36,1034
DA:37,1034
DA:40,1034
DA:41,518
DA:42,516
DA:44,1034
DA:46,1034
DA:48,1034
DA:49,1034
DA:55,776
DA:56,776
DA:58,4894
DA:59,776
DA:60,776
DA:61,776
DA:63,4894
DA:64,0
DA:65,0
DA:68,4894
DA:69,1153
DA:71,1153
DA:72,0
DA:73,0
DA:74,1153
DA:75,3741
DA:77,776
DA:78,776
DA:116,518
DA:117,518
DA:118,518
DA:119,518
DA:120,518
DA:121,518
DA:122,518
DA:123,518
DA:124,518
DA:125,518
DA:126,518
DA:129,1034
DA:130,1034
DA:131,1034
DA:132,0
DA:133,1034
DA:134,1034
DA:135,1034
DA:136,1034
DA:137,1034
DA:138,1034
DA:139,23150
DA:140,1034
DA:141,1034
DA:142,1034
DA:149,2343
DA:150,2343
DA:151,2343
DA:152,2343
DA:153,2343
DA:154,2343
DA:155,2343
DA:157,4977
DA:158,4977
DA:159,4977
DA:160,4977
DA:161,4977
DA:163,4977
DA:164,1309
DA:165,1309
DA:166,1309
DA:167,1309
DA:169,3668
DA:170,3668
DA:173,2343
DA:174,2343
DA:177,2343
DA:178,2343
DA:179,2343
DA:180,2343
DA:181,2343
DA:182,2343
DA:183,2343
DA:184,2343
DA:185,7966
DA:186,7966
DA:187,5623
DA:188,2343
DA:191,8633
DA:192,3011
DA:193,206
DA:194,5416
DA:195,8633
DA:196,2343
DA:197,2343
BRF:0
BRH:0
LF:103
LH:93
end_of_record